; Function Attrs: mustprogress nounwind uwtable
define dso_local noundef range(i32 45, 52) i32 @_ZNK4llvm17RISCVRegisterInfo16getFrameRegisterERKNS_15MachineFunctionE(ptr nocapture nonnull readnone align 8 %0, ptr noundef nonnull align 8 dereferenceable(1041) %1) unnamed_addr #2 align 2 {
  %3 = getelementptr inbounds nuw i8, ptr %1, i64 16
  %4 = load ptr, ptr %3, align 8
  %5 = load ptr, ptr %4, align 8
  %6 = getelementptr inbounds i8, ptr %5, i64 136
  %7 = load ptr, ptr %6, align 8
  %8 = tail call noundef ptr %7(ptr noundef nonnull align 8 dereferenceable(288) %4) #21
  %9 = load ptr, ptr %8, align 8
  %10 = getelementptr inbounds i8, ptr %9, i64 200
  %11 = load ptr, ptr %10, align 8
  %12 = tail call noundef zeroext i1 %11(ptr noundef nonnull align 8 dereferenceable(21) %8, ptr noundef nonnull align 8 dereferenceable(1041) %1) #21
  %13 = select i1 %12, i32 51, i32 45
  ret i32 %13
}